target datalayout = "e-m:e-p270:32:32-p271:32:32-p272:64:64-i64:64-i128:128-f80:128-n8:16:32:64-S128"
target triple = "x86_64-pc-linux-gnu"

%"struct.Atomic::StoreImpl" = type { i8 }
%"struct.Atomic::LoadImpl" = type { i8 }
%"struct.Atomic::PlatformStore" = type { i8 }
%"struct.Atomic::PlatformLoad" = type { i8 }

; Function Attrs: mustprogress nounwind uwtable
define linkonce_odr hidden void @_ZNK6Atomic13PlatformStoreILm8EEclIP12HeapWordImplEEvPVT_S5_(ptr noundef nonnull align 1 dereferenceable(1) %0, ptr noundef %1, ptr noundef %2) #1 comdat align 2 {
  %4 = alloca ptr, align 8
  %5 = alloca ptr, align 8
  %6 = alloca ptr, align 8
  store ptr %0, ptr %4, align 8
  store ptr %1, ptr %5, align 8
  store ptr %2, ptr %6, align 8
  %7 = load ptr, ptr %6, align 8
  %8 = load ptr, ptr %5, align 8
  store volatile ptr %7, ptr %8, align 8
  ret void
}

; Function Attrs: mustprogress nounwind uwtable
define linkonce_odr hidden noundef ptr @_ZNK6Atomic12PlatformLoadILm8EEclIP12HeapWordImplEET_PVKS5_(ptr noundef nonnull align 1 dereferenceable(1) %0, ptr noundef %1) #1 comdat align 2 {
  %3 = alloca ptr, align 8
  %4 = alloca ptr, align 8
  store ptr %0, ptr %3, align 8
  store ptr %1, ptr %4, align 8
  %5 = load ptr, ptr %4, align 8
  %6 = load volatile ptr, ptr %5, align 8
  ret ptr %6
}

; Function Attrs: mustprogress nounwind uwtable
define linkonce_odr hidden void @_ZNK6Atomic9StoreImplIP12HeapWordImplS2_NS_13PlatformStoreILm8EEEvEclEPVS2_S2_(ptr noundef nonnull align 1 dereferenceable(1) %0, ptr noundef %1, ptr noundef %2) #1 comdat align 2 {
  %4 = alloca ptr, align 8
  %5 = alloca ptr, align 8
  %6 = alloca ptr, align 8
  %7 = alloca ptr, align 8
  %8 = alloca %"struct.Atomic::PlatformStore", align 1
  store ptr %0, ptr %4, align 8
  store ptr %1, ptr %5, align 8
  store ptr %2, ptr %6, align 8
  %9 = load ptr, ptr %6, align 8
  store ptr %9, ptr %7, align 8
  %10 = load ptr, ptr %5, align 8
  %11 = load ptr, ptr %7, align 8
  call void @_ZNK6Atomic13PlatformStoreILm8EEclIP12HeapWordImplEEvPVT_S5_(ptr noundef nonnull align 1 dereferenceable(1) %8, ptr noundef %10, ptr noundef %11)
  ret void
}

; Function Attrs: mustprogress nounwind uwtable
define linkonce_odr hidden noundef ptr @_ZNK6Atomic8LoadImplIP12HeapWordImplNS_12PlatformLoadILm8EEEvEclEPVKS2_(ptr noundef nonnull align 1 dereferenceable(1) %0, ptr noundef %1) #1 comdat align 2 {
  %3 = alloca ptr, align 8
  %4 = alloca ptr, align 8
  %5 = alloca %"struct.Atomic::PlatformLoad", align 1
  store ptr %0, ptr %3, align 8
  store ptr %1, ptr %4, align 8
  %6 = load ptr, ptr %4, align 8
  %7 = call noundef ptr @_ZNK6Atomic12PlatformLoadILm8EEclIP12HeapWordImplEET_PVKS5_(ptr noundef nonnull align 1 dereferenceable(1) %5, ptr noundef %6)
  ret ptr %7
}

; Function Attrs: mustprogress nounwind uwtable
define linkonce_odr hidden void @_ZN6Atomic5storeIP12HeapWordImplS2_EEvPVT_T0_(ptr noundef %0, ptr noundef %1) #1 comdat align 2 {
  %3 = alloca ptr, align 8
  %4 = alloca ptr, align 8
  %5 = alloca %"struct.Atomic::StoreImpl", align 1
  store ptr %0, ptr %3, align 8
  store ptr %1, ptr %4, align 8
  %6 = load ptr, ptr %3, align 8
  %7 = load ptr, ptr %4, align 8
  call void @_ZNK6Atomic9StoreImplIP12HeapWordImplS2_NS_13PlatformStoreILm8EEEvEclEPVS2_S2_(ptr noundef nonnull align 1 dereferenceable(1) %5, ptr noundef %6, ptr noundef %7)
  ret void
}

; Function Attrs: mustprogress nounwind uwtable
define linkonce_odr hidden noundef ptr @_ZN6Atomic4loadIP12HeapWordImplEET_PVKS3_(ptr noundef %0) #1 comdat align 2 {
  %2 = alloca ptr, align 8
  %3 = alloca %"struct.Atomic::LoadImpl", align 1
  store ptr %0, ptr %2, align 8
  %4 = load ptr, ptr %2, align 8
  %5 = call noundef ptr @_ZNK6Atomic8LoadImplIP12HeapWordImplNS_12PlatformLoadILm8EEEvEclEPVKS2_(ptr noundef nonnull align 1 dereferenceable(1) %3, ptr noundef %4)
  ret ptr %5
}

; Function Attrs: mustprogress nounwind uwtable
define linkonce_odr hidden void @_ZN4Copy28shared_disjoint_words_atomicEPKP12HeapWordImplPS1_m(ptr noundef %0, ptr noundef %1, i64 noundef %2) #1 comdat align 2 {
  %4 = alloca ptr, align 8
  %5 = alloca ptr, align 8
  %6 = alloca i64, align 8
  store ptr %0, ptr %4, align 8
  store ptr %1, ptr %5, align 8
  store i64 %2, ptr %6, align 8
  %7 = load i64, ptr %6, align 8
  switch i64 %7, label %57 [
    i64 8, label %8
    i64 7, label %14
    i64 6, label %20
    i64 5, label %26
    i64 4, label %32
    i64 3, label %38
    i64 2, label %44
    i64 1, label %50
    i64 0, label %56
  ]

8:                                                ; preds = %3
  %9 = load ptr, ptr %5, align 8
  %10 = getelementptr inbounds ptr, ptr %9, i64 7
  %11 = load ptr, ptr %4, align 8
  %12 = getelementptr inbounds ptr, ptr %11, i64 7
  %13 = call noundef ptr @_ZN6Atomic4loadIP12HeapWordImplEET_PVKS3_(ptr noundef %12)
  call void @_ZN6Atomic5storeIP12HeapWordImplS2_EEvPVT_T0_(ptr noundef %10, ptr noundef %13)
  br label %14

14:                                               ; preds = %8, %3
  %15 = load ptr, ptr %5, align 8
  %16 = getelementptr inbounds ptr, ptr %15, i64 6
  %17 = load ptr, ptr %4, align 8
  %18 = getelementptr inbounds ptr, ptr %17, i64 6
  %19 = call noundef ptr @_ZN6Atomic4loadIP12HeapWordImplEET_PVKS3_(ptr noundef %18)
  call void @_ZN6Atomic5storeIP12HeapWordImplS2_EEvPVT_T0_(ptr noundef %16, ptr noundef %19)
  br label %20

20:                                               ; preds = %14, %3
  %21 = load ptr, ptr %5, align 8
  %22 = getelementptr inbounds ptr, ptr %21, i64 5
  %23 = load ptr, ptr %4, align 8
  %24 = getelementptr inbounds ptr, ptr %23, i64 5
  %25 = call noundef ptr @_ZN6Atomic4loadIP12HeapWordImplEET_PVKS3_(ptr noundef %24)
  call void @_ZN6Atomic5storeIP12HeapWordImplS2_EEvPVT_T0_(ptr noundef %22, ptr noundef %25)
  br label %26

26:                                               ; preds = %20, %3
  %27 = load ptr, ptr %5, align 8
  %28 = getelementptr inbounds ptr, ptr %27, i64 4
  %29 = load ptr, ptr %4, align 8
  %30 = getelementptr inbounds ptr, ptr %29, i64 4
  %31 = call noundef ptr @_ZN6Atomic4loadIP12HeapWordImplEET_PVKS3_(ptr noundef %30)
  call void @_ZN6Atomic5storeIP12HeapWordImplS2_EEvPVT_T0_(ptr noundef %28, ptr noundef %31)
  br label %32

32:                                               ; preds = %26, %3
  %33 = load ptr, ptr %5, align 8
  %34 = getelementptr inbounds ptr, ptr %33, i64 3
  %35 = load ptr, ptr %4, align 8
  %36 = getelementptr inbounds ptr, ptr %35, i64 3
  %37 = call noundef ptr @_ZN6Atomic4loadIP12HeapWordImplEET_PVKS3_(ptr noundef %36)
  call void @_ZN6Atomic5storeIP12HeapWordImplS2_EEvPVT_T0_(ptr noundef %34, ptr noundef %37)
  br label %38

38:                                               ; preds = %32, %3
  %39 = load ptr, ptr %5, align 8
  %40 = getelementptr inbounds ptr, ptr %39, i64 2
  %41 = load ptr, ptr %4, align 8
  %42 = getelementptr inbounds ptr, ptr %41, i64 2
  %43 = call noundef ptr @_ZN6Atomic4loadIP12HeapWordImplEET_PVKS3_(ptr noundef %42)
  call void @_ZN6Atomic5storeIP12HeapWordImplS2_EEvPVT_T0_(ptr noundef %40, ptr noundef %43)
  br label %44

44:                                               ; preds = %38, %3
  %45 = load ptr, ptr %5, align 8
  %46 = getelementptr inbounds ptr, ptr %45, i64 1
  %47 = load ptr, ptr %4, align 8
  %48 = getelementptr inbounds ptr, ptr %47, i64 1
  %49 = call noundef ptr @_ZN6Atomic4loadIP12HeapWordImplEET_PVKS3_(ptr noundef %48)
  call void @_ZN6Atomic5storeIP12HeapWordImplS2_EEvPVT_T0_(ptr noundef %46, ptr noundef %49)
  br label %50

50:                                               ; preds = %44, %3
  %51 = load ptr, ptr %5, align 8
  %52 = getelementptr inbounds ptr, ptr %51, i64 0
  %53 = load ptr, ptr %4, align 8
  %54 = getelementptr inbounds ptr, ptr %53, i64 0
  %55 = call noundef ptr @_ZN6Atomic4loadIP12HeapWordImplEET_PVKS3_(ptr noundef %54)
  call void @_ZN6Atomic5storeIP12HeapWordImplS2_EEvPVT_T0_(ptr noundef %52, ptr noundef %55)
  br label %56

56:                                               ; preds = %50, %3
  br label %69

57:                                               ; preds = %3
  br label %58

58:                                               ; preds = %62, %57
  %59 = load i64, ptr %6, align 8
  %60 = add i64 %59, -1
  store i64 %60, ptr %6, align 8
  %61 = icmp ugt i64 %59, 0
  br i1 %61, label %62, label %68

62:                                               ; preds = %58
  %63 = load ptr, ptr %5, align 8
  %64 = getelementptr inbounds ptr, ptr %63, i32 1
  store ptr %64, ptr %5, align 8
  %65 = load ptr, ptr %4, align 8
  %66 = getelementptr inbounds ptr, ptr %65, i32 1
  store ptr %66, ptr %4, align 8
  %67 = call noundef ptr @_ZN6Atomic4loadIP12HeapWordImplEET_PVKS3_(ptr noundef %65)
  call void @_ZN6Atomic5storeIP12HeapWordImplS2_EEvPVT_T0_(ptr noundef %63, ptr noundef %67)
  br label %58, !llvm.loop !6

68:                                               ; preds = %58
  br label %69

69:                                               ; preds = %68, %56
  ret void
}

; Function Attrs: mustprogress nounwind uwtable
define linkonce_odr hidden void @_ZN4Copy24pd_disjoint_words_atomicEPKP12HeapWordImplPS1_m(ptr noundef %0, ptr noundef %1, i64 noundef %2) #1 comdat align 2 {
  %4 = alloca ptr, align 8
  %5 = alloca ptr, align 8
  %6 = alloca i64, align 8
  store ptr %0, ptr %4, align 8
  store ptr %1, ptr %5, align 8
  store i64 %2, ptr %6, align 8
  %7 = load ptr, ptr %4, align 8
  %8 = load ptr, ptr %5, align 8
  %9 = load i64, ptr %6, align 8
  call void @_ZN4Copy28shared_disjoint_words_atomicEPKP12HeapWordImplPS1_m(ptr noundef %7, ptr noundef %8, i64 noundef %9)
  ret void
}

; Function Attrs: mustprogress nounwind uwtable
define linkonce_odr hidden void @_ZN4Copy15assert_disjointEPKP12HeapWordImplPS1_m(ptr noundef %0, ptr noundef %1, i64 noundef %2) #1 comdat align 2 {
  %4 = alloca ptr, align 8
  %5 = alloca ptr, align 8
  %6 = alloca i64, align 8
  store ptr %0, ptr %4, align 8
  store ptr %1, ptr %5, align 8
  store i64 %2, ptr %6, align 8
  ret void
}

; Function Attrs: mustprogress nounwind uwtable
define linkonce_odr hidden void @_ZN4Copy16assert_params_okEPKvPvl(ptr noundef %0, ptr noundef %1, i64 noundef %2) #1 comdat align 2 {
  %4 = alloca ptr, align 8
  %5 = alloca ptr, align 8
  %6 = alloca i64, align 8
  store ptr %0, ptr %4, align 8
  store ptr %1, ptr %5, align 8
  store i64 %2, ptr %6, align 8
  ret void
}

; Function Attrs: mustprogress nounwind uwtable
define linkonce_odr hidden void @_ZN4Copy21disjoint_words_atomicEPKP12HeapWordImplPS1_m(ptr noundef %0, ptr noundef %1, i64 noundef %2) #1 comdat align 2 {
  %4 = alloca ptr, align 8
  %5 = alloca ptr, align 8
  %6 = alloca i64, align 8
  store ptr %0, ptr %4, align 8
  store ptr %1, ptr %5, align 8
  store i64 %2, ptr %6, align 8
  %7 = load ptr, ptr %4, align 8
  %8 = load ptr, ptr %5, align 8
  call void @_ZN4Copy16assert_params_okEPKvPvl(ptr noundef %7, ptr noundef %8, i64 noundef 8)
  %9 = load ptr, ptr %4, align 8
  %10 = load ptr, ptr %5, align 8
  %11 = load i64, ptr %6, align 8
  call void @_ZN4Copy15assert_disjointEPKP12HeapWordImplPS1_m(ptr noundef %9, ptr noundef %10, i64 noundef %11)
  %12 = load ptr, ptr %4, align 8
  %13 = load ptr, ptr %5, align 8
  %14 = load i64, ptr %6, align 8
  call void @_ZN4Copy24pd_disjoint_words_atomicEPKP12HeapWordImplPS1_m(ptr noundef %12, ptr noundef %13, i64 noundef %14)
  ret void
}

; Function Attrs: mustprogress nounwind uwtable
define hidden void @_ZN14AccessInternal31arraycopy_disjoint_words_atomicEPvS0_m(ptr noundef %0, ptr noundef %1, i64 noundef %2) #1 {
  %4 = alloca ptr, align 8
  %5 = alloca ptr, align 8
  %6 = alloca i64, align 8
  store ptr %0, ptr %4, align 8
  store ptr %1, ptr %5, align 8
  store i64 %2, ptr %6, align 8
  %7 = load ptr, ptr %4, align 8
  %8 = load ptr, ptr %5, align 8
  %9 = load i64, ptr %6, align 8
  call void @_ZN4Copy21disjoint_words_atomicEPKP12HeapWordImplPS1_m(ptr noundef %7, ptr noundef %8, i64 noundef %9)
  ret void
}