; Function Attrs: mustprogress nofree norecurse nounwind uwtable
define hidden void @_ZN14AccessInternal31arraycopy_disjoint_words_atomicEPvS0_m(ptr noundef %0, ptr noundef %1, i64 noundef %2) local_unnamed_addr #2 {
  switch i64 %2, label %.lr.ph.i.i.i [
    i64 8, label %4
    i64 7, label %8
    i64 6, label %12
    i64 5, label %16
    i64 4, label %20
    i64 3, label %24
    i64 2, label %28
    i64 1, label %32
    i64 0, label %_ZN4Copy21disjoint_words_atomicEPKP12HeapWordImplPS1_m.exit
  ]

4:                                                ; preds = %3
  %5 = getelementptr inbounds i8, ptr %1, i64 56
  %6 = getelementptr inbounds i8, ptr %0, i64 56
  %7 = load volatile ptr, ptr %6, align 8
  store volatile ptr %7, ptr %5, align 8
  br label %8

8:                                                ; preds = %4, %3
  %9 = getelementptr inbounds i8, ptr %1, i64 48
  %10 = getelementptr inbounds i8, ptr %0, i64 48
  %11 = load volatile ptr, ptr %10, align 8
  store volatile ptr %11, ptr %9, align 8
  br label %12

12:                                               ; preds = %8, %3
  %13 = getelementptr inbounds i8, ptr %1, i64 40
  %14 = getelementptr inbounds i8, ptr %0, i64 40
  %15 = load volatile ptr, ptr %14, align 8
  store volatile ptr %15, ptr %13, align 8
  br label %16

16:                                               ; preds = %12, %3
  %17 = getelementptr inbounds i8, ptr %1, i64 32
  %18 = getelementptr inbounds i8, ptr %0, i64 32
  %19 = load volatile ptr, ptr %18, align 8
  store volatile ptr %19, ptr %17, align 8
  br label %20

20:                                               ; preds = %16, %3
  %21 = getelementptr inbounds i8, ptr %1, i64 24
  %22 = getelementptr inbounds i8, ptr %0, i64 24
  %23 = load volatile ptr, ptr %22, align 8
  store volatile ptr %23, ptr %21, align 8
  br label %24

24:                                               ; preds = %20, %3
  %25 = getelementptr inbounds i8, ptr %1, i64 16
  %26 = getelementptr inbounds i8, ptr %0, i64 16
  %27 = load volatile ptr, ptr %26, align 8
  store volatile ptr %27, ptr %25, align 8
  br label %28

28:                                               ; preds = %24, %3
  %29 = getelementptr inbounds i8, ptr %1, i64 8
  %30 = getelementptr inbounds i8, ptr %0, i64 8
  %31 = load volatile ptr, ptr %30, align 8
  store volatile ptr %31, ptr %29, align 8
  br label %32

32:                                               ; preds = %28, %3
  %33 = load volatile ptr, ptr %0, align 8
  store volatile ptr %33, ptr %1, align 8
  br label %_ZN4Copy21disjoint_words_atomicEPKP12HeapWordImplPS1_m.exit

.lr.ph.i.i.i:                                     ; preds = %3, %.lr.ph.i.i.i
  %.024.i.i.i = phi i64 [ %34, %.lr.ph.i.i.i ], [ %2, %3 ]
  %.01923.i.i.i = phi ptr [ %35, %.lr.ph.i.i.i ], [ %1, %3 ]
  %.02022.i.i.i = phi ptr [ %36, %.lr.ph.i.i.i ], [ %0, %3 ]
  %34 = add i64 %.024.i.i.i, -1
  %35 = getelementptr inbounds i8, ptr %.01923.i.i.i, i64 8
  %36 = getelementptr inbounds i8, ptr %.02022.i.i.i, i64 8
  %37 = load volatile ptr, ptr %.02022.i.i.i, align 8
  store volatile ptr %37, ptr %.01923.i.i.i, align 8
  %.not.i.i.i = icmp eq i64 %34, 0
  br i1 %.not.i.i.i, label %_ZN4Copy21disjoint_words_atomicEPKP12HeapWordImplPS1_m.exit, label %.lr.ph.i.i.i, !llvm.loop !6

_ZN4Copy21disjoint_words_atomicEPKP12HeapWordImplPS1_m.exit: ; preds = %.lr.ph.i.i.i, %3, %32
  ret void
}